; Function Attrs: mustprogress uwtable
define hidden void @_ZN16datatype_factoryC2ER11ast_managerR10model_core(ptr noundef nonnull align 8 dereferenceable(408) %this, ptr noundef nonnull align 8 dereferenceable(976) %m, ptr noundef nonnull align 8 dereferenceable(96) %md) unnamed_addr #3 align 2 personality ptr @__gxx_personality_v0 {
entry:
  %ref.tmp.i = alloca %class.symbol, align 8
  call void @llvm.lifetime.start.p0(i64 8, ptr nonnull %ref.tmp.i)
  call void @_ZN6symbolC1EPKc(ptr noundef nonnull align 8 dereferenceable(8) %ref.tmp.i, ptr noundef nonnull @.str)
  %m_family_manager.i.i = getelementptr inbounds i8, ptr %m, i64 560
  %call.i.i = call noundef i32 @_ZN14family_manager12mk_family_idERK6symbol(ptr noundef nonnull align 8 dereferenceable(56) %m_family_manager.i.i, ptr noundef nonnull align 8 dereferenceable(8) %ref.tmp.i)
  call void @llvm.lifetime.end.p0(i64 8, ptr nonnull %ref.tmp.i)
  call void @_ZN14struct_factoryC2ER11ast_manageriR10model_core(ptr noundef nonnull align 8 dereferenceable(96) %this, ptr noundef nonnull align 8 dereferenceable(976) %m, i32 noundef %call.i.i, ptr noundef nonnull align 8 dereferenceable(96) %md)
  store ptr getelementptr inbounds ({ [8 x ptr] }, ptr @_ZTV16datatype_factory, i64 0, i32 0, i64 2), ptr %this, align 8
  %m_util = getelementptr inbounds i8, ptr %this, i64 96
  invoke void @_ZN8datatype4utilC1ER11ast_manager(ptr noundef nonnull align 8 dereferenceable(288) %m_util, ptr noundef nonnull align 8 dereferenceable(976) %m)
          to label %invoke.cont unwind label %lpad

invoke.cont:                                      ; preds = %entry
  %call.i.i.i.i4 = invoke noalias noundef ptr @_ZN6memory8allocateEm(i64 noundef 128)
          to label %invoke.cont3 unwind label %lpad2

invoke.cont3:                                     ; preds = %invoke.cont
  %m_last_fresh_value = getelementptr inbounds i8, ptr %this, i64 384
  call void @llvm.memset.p0.i64(ptr noundef nonnull align 8 dereferenceable(128) %call.i.i.i.i4, i8 0, i64 128, i1 false)
  store ptr %call.i.i.i.i4, ptr %m_last_fresh_value, align 8
  %m_capacity.i.i = getelementptr inbounds i8, ptr %this, i64 392
  store i32 8, ptr %m_capacity.i.i, align 8
  %m_size.i.i = getelementptr inbounds i8, ptr %this, i64 396
  store i32 0, ptr %m_size.i.i, align 4
  %m_num_deleted.i.i = getelementptr inbounds i8, ptr %this, i64 400
  store i32 0, ptr %m_num_deleted.i.i, align 8
  ret void

lpad:                                             ; preds = %entry
  %0 = landingpad { ptr, i32 }
          cleanup
  br label %ehcleanup

lpad2:                                            ; preds = %invoke.cont
  %1 = landingpad { ptr, i32 }
          cleanup
  call void @_ZN8datatype4utilD1Ev(ptr noundef nonnull align 8 dereferenceable(288) %m_util) #15
  br label %ehcleanup

ehcleanup:                                        ; preds = %lpad2, %lpad
  %.pn = phi { ptr, i32 } [ %1, %lpad2 ], [ %0, %lpad ]
  call void @_ZN14struct_factoryD2Ev(ptr noundef nonnull align 8 dereferenceable(96) %this) #15
  resume { ptr, i32 } %.pn
}